.section .text
.intel_syntax noprefix
.file 1 "Sandbox.v"
.global main
main:
jmp _V4initv_rx

.extern _V17internal_allocatex_rPh

_V4initv_rx:
.loc 1 15 1
.cfi_startproc
push rbp
.cfi_def_cfa_offset 16
.cfi_offset 6, -16
mov rbp, rsp
.cfi_def_cfa_register 6
sub rsp, 80
.loc 1 16 6
.loc 1 16 8
call _VN3Goo4initEv_rPS_
mov qword ptr [rsp+72], rax
.loc 1 17 4
movsd xmm0, qword ptr [rip+_V4initv_rx_C0]
movsd qword ptr [rsp+64], xmm0
.loc 1 19 4
mov qword ptr [rsp+56], 1
.loc 1 20 4
mov qword ptr [rsp+48], 2
.loc 1 22 2
.loc 1 22 10
mov qword ptr [rsp+40], 0
mov rcx, [rsp+40]
cmp rcx, 10
jge _V4initv_rx_L1
_V4initv_rx_L0:
.loc 1 23 3
mov rcx, [rsp+56]
add rcx, 1
.loc 1 22 23
mov rdx, [rsp+40]
add rdx, 1
mov qword ptr [rsp+56], rcx
mov qword ptr [rsp+40], rdx
mov rcx, [rsp+40]
cmp rcx, 10
mov qword ptr [rsp+40], rcx
jl _V4initv_rx_L0
_V4initv_rx_L1:
.loc 1 26 4
.loc 1 26 10
mov rdx, [rsp+56]
add rdx, [rsp+48]
mov rcx, [rsp+72]
call _VN3Goo3fooEx_rx
mov qword ptr [rsp+48], rax
mov rax, [rsp+56]
mov rax, [rsp+48]
.loc 1 28 2
mov rcx, [rsp+56]
mov rdx, [rsp+48]
cmp rcx, rdx
jle _V4initv_rx_L5
.loc 1 29 5
mov qword ptr [rsp+56], 10
jmp _V4initv_rx_L4
_V4initv_rx_L5:
.loc 1 31 2
.loc 1 32 5
mov qword ptr [rsp+48], 5
_V4initv_rx_L4:
.loc 1 35 2
mov rax, [rsp+56]
add rax, [rsp+48]
add rsp, 80
.cfi_def_cfa 7, 8
pop rbp
ret
_V4initv_rx_end:
.cfi_endproc

_V8allocatex_rPh:
.loc 1 23 1
.cfi_startproc
push rbx
push rbp
.cfi_def_cfa_offset 16
.cfi_offset 6, -16
mov rbp, rsp
.cfi_def_cfa_register 6
sub rsp, 56
.loc 1 24 5
mov rdx, [rip+_VN10Allocation_current]
test rdx, rdx
je _V8allocatex_rPh_L0
mov r8, [rip+_VN10Allocation_current]
mov rdx, [r8+16]
add rdx, rcx
cmp rdx, 1000000
jg _V8allocatex_rPh_L0
.loc 1 25 18
mov r8, [rip+_VN10Allocation_current]
mov rdx, [r8+16]
mov qword ptr [rsp+48], rdx
.loc 1 26 37
mov rdx, [rip+_VN10Allocation_current]
add qword ptr [rdx+16], rcx
.loc 1 28 9
mov rdx, [rip+_VN10Allocation_current]
mov rax, [rdx+8]
add rax, [rsp+48]
add rsp, 56
.cfi_def_cfa 7, 8
pop rbp
pop rbx
ret
_V8allocatex_rPh_L0:
.loc 1 31 13
.loc 1 31 15
mov rbx, rcx
mov rcx, 1000000
call _V17internal_allocatex_rPh
mov qword ptr [rsp+40], rax
.loc 1 33 10
.loc 1 33 12
mov rcx, 24
call _V17internal_allocatex_rPh
mov qword ptr [rsp+32], rax
.loc 1 34 18
mov rcx, [rsp+32]
mov rdx, [rsp+40]
mov qword ptr [rcx+8], rdx
.loc 1 35 19
mov rcx, [rsp+32]
mov qword ptr [rcx+16], rbx
.loc 1 37 24
mov rcx, [rsp+32]
mov qword ptr [rip+_VN10Allocation_current], rcx
.loc 1 39 5
mov rax, [rsp+40]
add rsp, 56
.cfi_def_cfa 7, 8
pop rbp
pop rbx
ret
_V8allocatex_rPh_end:
.cfi_endproc

_V8inheritsPhS__rx:
.loc 1 46 1
.cfi_startproc
push rbp
.cfi_def_cfa_offset 16
.cfi_offset 6, -16
mov rbp, rsp
.cfi_def_cfa_register 6
sub rsp, 56
.loc 1 47 4
mov r8, [rcx]
mov qword ptr [rsp+48], r8
.loc 1 48 4
mov r8, [rdx]
mov qword ptr [rsp+40], r8
.loc 1 50 4
mov r9, [rsp+40]
movzx r8, byte ptr [r9]
mov qword ptr [rsp+32], r8
.loc 1 51 4
mov qword ptr [rsp+24], 0
.loc 1 53 2
_V8inheritsPhS__rx_L1:
_V8inheritsPhS__rx_L0:
.loc 1 54 5
mov rdx, [rsp+48]
mov r8, [rsp+24]
movzx rcx, byte ptr [rdx+r8]
mov qword ptr [rsp+16], rcx
.loc 1 55 3
add r8, 1
mov rax, [rsp+16]
mov rax, [rsp+32]
mov rcx, [rsp+40]
.loc 1 57 3
mov r9, [rsp+16]
cmp r9, rax
jnz _V8inheritsPhS__rx_L4
.loc 1 58 6
mov qword ptr [rsp+8], 1
.loc 1 60 4
_V8inheritsPhS__rx_L7:
_V8inheritsPhS__rx_L6:
.loc 1 61 7
movzx r9, byte ptr [rdx+r8]
mov qword ptr [rsp+16], r9
.loc 1 62 7
mov r10, [rsp+8]
movzx r9, byte ptr [rcx+r10]
mov qword ptr [rsp], r9
.loc 1 64 5
add r8, 1
.loc 1 65 5
add r10, 1
mov r9, [rsp+16]
mov r11, [rsp]
.loc 1 67 5
mov r11, [rsp]
cmp r9, r11
jz _V8inheritsPhS__rx_L9
cmp r9, 1
jne _V8inheritsPhS__rx_L9
mov r11, [rsp]
test r11, r11
jne _V8inheritsPhS__rx_L9
.loc 1 67 72
mov rax, 1
add rsp, 56
.cfi_def_cfa 7, 8
pop rbp
ret
_V8inheritsPhS__rx_L9:
mov qword ptr [rsp+8], r10
mov qword ptr [rsp+16], r9
jmp _V8inheritsPhS__rx_L6
_V8inheritsPhS__rx_L8:
jmp _V8inheritsPhS__rx_L3
_V8inheritsPhS__rx_L4:
mov r9, [rsp+16]
cmp r9, 2
jne _V8inheritsPhS__rx_L3
.loc 1 70 42
xor rax, rax
add rsp, 56
.cfi_def_cfa 7, 8
pop rbp
ret
_V8inheritsPhS__rx_L3:
mov qword ptr [rsp+48], rdx
mov qword ptr [rsp+24], r8
mov qword ptr [rsp+32], rax
mov qword ptr [rsp+40], rcx
jmp _V8inheritsPhS__rx_L0
_V8inheritsPhS__rx_end:
_V8inheritsPhS__rx_L2:
add rsp, 56
.cfi_def_cfa 7, 8
pop rbp
ret
.cfi_endproc

_VN3Goo4initEv_rPS_:
.loc 1 5 2
.cfi_startproc
push rbp
.cfi_def_cfa_offset 16
.cfi_offset 6, -16
mov rbp, rsp
.cfi_def_cfa_register 6
sub rsp, 48
mov rcx, 24
call _V8allocatex_rPh
mov qword ptr [rsp+40], rax
.loc 1 6 5
mov rcx, [rsp+40]
mov qword ptr [rcx+8], 1
.loc 1 7 5
mov rcx, [rsp+40]
mov qword ptr [rcx+16], -1
mov rax, [rsp+40]
add rsp, 48
.cfi_def_cfa 7, 8
pop rbp
ret
_VN3Goo4initEv_rPS__end:
.cfi_endproc

_VN3Goo3fooEx_rx:
.loc 1 10 2
.cfi_startproc
push rbp
.cfi_def_cfa_offset 16
.cfi_offset 6, -16
mov rbp, rsp
.cfi_def_cfa_register 6
sub rsp, 8
.loc 1 11 3
mov rax, [rcx+8]
mov r8, [rcx+16]
add rax, r8
add rax, rdx
add rsp, 8
.cfi_def_cfa 7, 8
pop rbp
ret
_VN3Goo3fooEx_rx_end:
.cfi_endproc

end:
.section .data

_VN10Allocation_current:
.quad 0

_VN3Goo_configuration:
.quad _VN3Goo_descriptor

_VN3Goo_descriptor:
.quad _VN3Goo_descriptor_0
.long 24
.long 0

_VN3Goo_descriptor_0:
.ascii "Goo"
.byte 0
.byte 1
.byte 2
.byte 0

_VN4Page_configuration:
.quad _VN4Page_descriptor

_VN4Page_descriptor:
.quad _VN4Page_descriptor_0
.long 24
.long 0

_VN4Page_descriptor_0:
.ascii "Page"
.byte 0
.byte 1
.byte 2
.byte 0

_VN10Allocation_configuration:
.quad _VN10Allocation_descriptor

_VN10Allocation_descriptor:
.quad _VN10Allocation_descriptor_0
.long 8
.long 0

_VN10Allocation_descriptor_0:
.ascii "Allocation"
.byte 0
.byte 1
.byte 2
.byte 0

.balign 16
_V4initv_rx_C0:
.byte 84, 227, 165, 155, 196, 32, 9, 64 # 3.141
